; Function Attrs: mustprogress nounwind uwtable
define noundef nonnull align 8 dereferenceable(8) ptr @_ZN7rocksdb18SharedCleanablePtraSEOS0_(ptr noundef nonnull returned align 8 dereferenceable(8) %0, ptr noundef nonnull align 8 captures(none) dereferenceable(8) %1) local_unnamed_addr #6 align 2 personality ptr @__gxx_personality_v0 {
  %3 = load ptr, ptr %0, align 8, !tbaa !25
  %.not.i = icmp eq ptr %3, null
  br i1 %.not.i, label %_ZN7rocksdb18SharedCleanablePtr5ResetEv.exit, label %4

4:                                                ; preds = %2
  %5 = getelementptr inbounds nuw i8, ptr %3, i64 32
  %6 = atomicrmw sub ptr %5, i32 1 monotonic, align 4
  %.not.i.i = icmp eq i32 %6, 1
  br i1 %.not.i.i, label %7, label %_ZN7rocksdb18SharedCleanablePtr4Impl5UnrefEv.exit.i

7:                                                ; preds = %4
  %8 = load ptr, ptr %3, align 8, !tbaa !4
  %.not.i.i.i.i = icmp eq ptr %8, null
  br i1 %.not.i.i.i.i, label %_ZN7rocksdb9CleanableD2Ev.exit.i.i, label %9

9:                                                ; preds = %7
  %10 = getelementptr inbounds nuw i8, ptr %3, i64 8
  %11 = load ptr, ptr %10, align 8, !tbaa !21
  %12 = getelementptr inbounds nuw i8, ptr %3, i64 16
  %13 = load ptr, ptr %12, align 8, !tbaa !22
  invoke void %8(ptr noundef %11, ptr noundef %13)
          to label %.noexc.i.i.i unwind label %.loopexit.split-lp.i.i.i

.noexc.i.i.i:                                     ; preds = %9
  %14 = getelementptr inbounds nuw i8, ptr %3, i64 24
  %15 = load ptr, ptr %14, align 8, !tbaa !11
  %.not910.i.i.i.i = icmp eq ptr %15, null
  br i1 %.not910.i.i.i.i, label %_ZN7rocksdb9CleanableD2Ev.exit.i.i, label %.lr.ph.i.i.i.i

.lr.ph.i.i.i.i:                                   ; preds = %.noexc.i.i.i, %.noexc1.i.i.i
  %.011.i.i.i.i = phi ptr [ %22, %.noexc1.i.i.i ], [ %15, %.noexc.i.i.i ]
  %16 = load ptr, ptr %.011.i.i.i.i, align 8, !tbaa !18
  %17 = getelementptr inbounds nuw i8, ptr %.011.i.i.i.i, i64 8
  %18 = load ptr, ptr %17, align 8, !tbaa !15
  %19 = getelementptr inbounds nuw i8, ptr %.011.i.i.i.i, i64 16
  %20 = load ptr, ptr %19, align 8, !tbaa !16
  invoke void %16(ptr noundef %18, ptr noundef %20)
          to label %.noexc1.i.i.i unwind label %.loopexit.i.i.i

.noexc1.i.i.i:                                    ; preds = %.lr.ph.i.i.i.i
  %21 = getelementptr inbounds nuw i8, ptr %.011.i.i.i.i, i64 24
  %22 = load ptr, ptr %21, align 8, !tbaa !17
  tail call void @_ZdlPvm(ptr noundef nonnull %.011.i.i.i.i, i64 noundef 32) #14
  %.not9.i.i.i.i = icmp eq ptr %22, null
  br i1 %.not9.i.i.i.i, label %_ZN7rocksdb9CleanableD2Ev.exit.i.i, label %.lr.ph.i.i.i.i, !llvm.loop !28

.loopexit.i.i.i:                                  ; preds = %.lr.ph.i.i.i.i
  %lpad.loopexit.i.i.i = landingpad { ptr, i32 }
          catch ptr null
  br label %23

.loopexit.split-lp.i.i.i:                         ; preds = %9
  %lpad.loopexit.split-lp.i.i.i = landingpad { ptr, i32 }
          catch ptr null
  br label %23

23:                                               ; preds = %.loopexit.split-lp.i.i.i, %.loopexit.i.i.i
  %lpad.phi.i.i.i = phi { ptr, i32 } [ %lpad.loopexit.i.i.i, %.loopexit.i.i.i ], [ %lpad.loopexit.split-lp.i.i.i, %.loopexit.split-lp.i.i.i ]
  %24 = extractvalue { ptr, i32 } %lpad.phi.i.i.i, 0
  tail call void @__clang_call_terminate(ptr %24) #12
  unreachable

_ZN7rocksdb9CleanableD2Ev.exit.i.i:               ; preds = %.noexc1.i.i.i, %.noexc.i.i.i, %7
  tail call void @_ZdlPvm(ptr noundef nonnull align 8 dereferenceable(36) %3, i64 noundef 40) #14
  br label %_ZN7rocksdb18SharedCleanablePtr4Impl5UnrefEv.exit.i

_ZN7rocksdb18SharedCleanablePtr4Impl5UnrefEv.exit.i: ; preds = %_ZN7rocksdb9CleanableD2Ev.exit.i.i, %4
  store ptr null, ptr %0, align 8, !tbaa !25
  br label %_ZN7rocksdb18SharedCleanablePtr5ResetEv.exit

_ZN7rocksdb18SharedCleanablePtr5ResetEv.exit:     ; preds = %_ZN7rocksdb18SharedCleanablePtr4Impl5UnrefEv.exit.i, %2
  %25 = load ptr, ptr %1, align 8, !tbaa !25
  store ptr %25, ptr %0, align 8, !tbaa !25
  store ptr null, ptr %1, align 8, !tbaa !25
  ret ptr %0
}